target datalayout = "e-m:e-p270:32:32-p271:32:32-p272:64:64-i64:64-i128:128-f80:128-n8:16:32:64-S128"
target triple = "x86_64-pc-linux-gnu"

%struct.Aig_Obj_t_ = type { %union.anon, ptr, ptr, i64, i32, i32, %union.anon.0 }
%union.anon = type { ptr }
%union.anon.0 = type { ptr }
%struct.Fra_Bmc_t_ = type { i32, i32, i32, ptr, ptr, ptr, ptr, ptr, ptr }
%struct.Aig_Man_t_ = type { ptr, ptr, ptr, ptr, ptr, ptr, ptr, %struct.Aig_Obj_t_, i32, i32, i32, i32, i32, i32, [7 x i32], i32, ptr, i32, ptr, i32, ptr, i32, i32, i32, ptr, i32, i32, i32, i32, i32, ptr, ptr, i32, ptr, ptr, i32, ptr, ptr, i32, i32, i32, ptr, ptr, ptr, ptr, ptr, ptr, ptr, ptr, ptr, ptr, ptr, ptr, ptr, ptr, i32, ptr, ptr, ptr, ptr, i32, i64, i64, i64, ptr, ptr }
%struct.Vec_Ptr_t_ = type { i32, i32, ptr }

; Function Attrs: inlinehint nounwind uwtable
define internal i32 @Vec_PtrSize(ptr noundef %0) #2 {
  %2 = alloca ptr, align 8
  store ptr %0, ptr %2, align 8, !tbaa !77
  %3 = load ptr, ptr %2, align 8, !tbaa !77
  %4 = getelementptr inbounds nuw %struct.Vec_Ptr_t_, ptr %3, i32 0, i32 1
  %5 = load i32, ptr %4, align 4, !tbaa !81
  ret i32 %5
}

; Function Attrs: inlinehint nounwind uwtable
define internal i32 @Aig_ManObjNumMax(ptr noundef %0) #2 {
  %2 = alloca ptr, align 8
  store ptr %0, ptr %2, align 8, !tbaa !37
  %3 = load ptr, ptr %2, align 8, !tbaa !37
  %4 = getelementptr inbounds nuw %struct.Aig_Man_t_, ptr %3, i32 0, i32 4
  %5 = load ptr, ptr %4, align 8, !tbaa !53
  %6 = call i32 @Vec_PtrSize(ptr noundef %5)
  ret i32 %6
}

; Function Attrs: nounwind uwtable
define ptr @Fra_BmcStart(ptr noundef %0, i32 noundef %1, i32 noundef %2) #0 {
  %4 = alloca ptr, align 8
  %5 = alloca i32, align 4
  %6 = alloca i32, align 4
  %7 = alloca ptr, align 8
  store ptr %0, ptr %4, align 8, !tbaa !37
  store i32 %1, ptr %5, align 4, !tbaa !28
  store i32 %2, ptr %6, align 4, !tbaa !28
  call void @llvm.lifetime.start.p0(i64 8, ptr %7) #9
  %8 = call noalias ptr @malloc(i64 noundef 64) #10
  store ptr %8, ptr %7, align 8, !tbaa !44
  %9 = load ptr, ptr %7, align 8, !tbaa !44
  call void @llvm.memset.p0.i64(ptr align 8 %9, i8 0, i64 64, i1 false)
  %10 = load ptr, ptr %4, align 8, !tbaa !37
  %11 = load ptr, ptr %7, align 8, !tbaa !44
  %12 = getelementptr inbounds nuw %struct.Fra_Bmc_t_, ptr %11, i32 0, i32 4
  store ptr %10, ptr %12, align 8, !tbaa !46
  %13 = load i32, ptr %5, align 4, !tbaa !28
  %14 = load ptr, ptr %7, align 8, !tbaa !44
  %15 = getelementptr inbounds nuw %struct.Fra_Bmc_t_, ptr %14, i32 0, i32 0
  store i32 %13, ptr %15, align 8, !tbaa !26
  %16 = load i32, ptr %6, align 4, !tbaa !28
  %17 = load ptr, ptr %7, align 8, !tbaa !44
  %18 = getelementptr inbounds nuw %struct.Fra_Bmc_t_, ptr %17, i32 0, i32 1
  store i32 %16, ptr %18, align 4, !tbaa !56
  %19 = load i32, ptr %5, align 4, !tbaa !28
  %20 = load i32, ptr %6, align 4, !tbaa !28
  %21 = add nsw i32 %19, %20
  %22 = load ptr, ptr %7, align 8, !tbaa !44
  %23 = getelementptr inbounds nuw %struct.Fra_Bmc_t_, ptr %22, i32 0, i32 2
  store i32 %21, ptr %23, align 8, !tbaa !29
  %24 = load ptr, ptr %7, align 8, !tbaa !44
  %25 = getelementptr inbounds nuw %struct.Fra_Bmc_t_, ptr %24, i32 0, i32 2
  %26 = load i32, ptr %25, align 8, !tbaa !29
  %27 = load ptr, ptr %4, align 8, !tbaa !37
  %28 = call i32 @Aig_ManObjNumMax(ptr noundef %27)
  %29 = mul nsw i32 %26, %28
  %30 = sext i32 %29 to i64
  %31 = mul i64 8, %30
  %32 = call noalias ptr @malloc(i64 noundef %31) #10
  %33 = load ptr, ptr %7, align 8, !tbaa !44
  %34 = getelementptr inbounds nuw %struct.Fra_Bmc_t_, ptr %33, i32 0, i32 7
  store ptr %32, ptr %34, align 8, !tbaa !32
  %35 = load ptr, ptr %7, align 8, !tbaa !44
  %36 = getelementptr inbounds nuw %struct.Fra_Bmc_t_, ptr %35, i32 0, i32 7
  %37 = load ptr, ptr %36, align 8, !tbaa !32
  %38 = load ptr, ptr %7, align 8, !tbaa !44
  %39 = getelementptr inbounds nuw %struct.Fra_Bmc_t_, ptr %38, i32 0, i32 2
  %40 = load i32, ptr %39, align 8, !tbaa !29
  %41 = sext i32 %40 to i64
  %42 = mul i64 8, %41
  %43 = load ptr, ptr %4, align 8, !tbaa !37
  %44 = call i32 @Aig_ManObjNumMax(ptr noundef %43)
  %45 = sext i32 %44 to i64
  %46 = mul i64 %42, %45
  call void @llvm.memset.p0.i64(ptr align 8 %37, i8 0, i64 %46, i1 false)
  %47 = load ptr, ptr %7, align 8, !tbaa !44
  call void @llvm.lifetime.end.p0(i64 8, ptr %7) #9
  ret ptr %47
}