; Function Attrs: mustprogress nofree nounwind willreturn memory(readwrite, argmem: read) uwtable
define noalias noundef ptr @Fra_BmcStart(ptr noundef %0, i32 noundef %1, i32 noundef %2) local_unnamed_addr #4 {
  %calloc = tail call dereferenceable_or_null(64) ptr @calloc(i64 1, i64 64)
  %4 = getelementptr inbounds nuw i8, ptr %calloc, i64 24
  store ptr %0, ptr %4, align 8, !tbaa !45
  store i32 %1, ptr %calloc, align 8, !tbaa !22
  %5 = getelementptr inbounds nuw i8, ptr %calloc, i64 4
  store i32 %2, ptr %5, align 4, !tbaa !54
  %6 = add nsw i32 %2, %1
  %7 = getelementptr inbounds nuw i8, ptr %calloc, i64 8
  store i32 %6, ptr %7, align 8, !tbaa !24
  %8 = getelementptr i8, ptr %0, i64 32
  %.val = load ptr, ptr %8, align 8, !tbaa !46
  %9 = getelementptr i8, ptr %.val, i64 4
  %.val.val = load i32, ptr %9, align 4, !tbaa !55
  %10 = mul nsw i32 %.val.val, %6
  %11 = sext i32 %10 to i64
  %12 = shl nsw i64 %11, 3
  %13 = tail call noalias ptr @malloc(i64 noundef %12) #17
  %14 = getelementptr inbounds nuw i8, ptr %calloc, i64 48
  store ptr %13, ptr %14, align 8, !tbaa !28
  %15 = sext i32 %6 to i64
  %16 = shl nsw i64 %15, 3
  %17 = sext i32 %.val.val to i64
  %18 = mul i64 %16, %17
  tail call void @llvm.memset.p0.i64(ptr align 8 %13, i8 0, i64 %18, i1 false)
  ret ptr %calloc
}